target datalayout = "e-m:e-p270:32:32-p271:32:32-p272:64:64-i64:64-i128:128-f80:128-n8:16:32:64-S128"
target triple = "x86_64-pc-linux-gnu"

%"class.zxing::Counted" = type <{ ptr, i32, [4 x i8] }>
%"class.zxing::Ref.30" = type { ptr }
%"class.zxing::Ref.29" = type { ptr }

; Function Attrs: mustprogress nounwind uwtable
define linkonce_odr hidden void @_ZN5zxing7Counted7releaseEv(ptr noundef nonnull align 8 dereferenceable(12) %0) #1 comdat align 2 {
  %2 = alloca ptr, align 8
  store ptr %0, ptr %2, align 8, !tbaa !28
  %3 = load ptr, ptr %2, align 8
  %4 = getelementptr inbounds nuw %"class.zxing::Counted", ptr %3, i32 0, i32 1
  %5 = load i32, ptr %4, align 8, !tbaa !30
  %6 = add i32 %5, -1
  store i32 %6, ptr %4, align 8, !tbaa !30
  %7 = getelementptr inbounds nuw %"class.zxing::Counted", ptr %3, i32 0, i32 1
  %8 = load i32, ptr %7, align 8, !tbaa !30
  %9 = icmp eq i32 %8, 0
  br i1 %9, label %10, label %18

10:                                               ; preds = %1
  %11 = getelementptr inbounds nuw %"class.zxing::Counted", ptr %3, i32 0, i32 1
  store i32 -559026175, ptr %11, align 8, !tbaa !30
  %12 = icmp eq ptr %3, null
  br i1 %12, label %17, label %13

13:                                               ; preds = %10
  %14 = load ptr, ptr %3, align 8, !tbaa !12
  %15 = getelementptr inbounds ptr, ptr %14, i64 1
  %16 = load ptr, ptr %15, align 8
  call void %16(ptr noundef nonnull align 8 dereferenceable(12) %3) #16
  br label %17

17:                                               ; preds = %13, %10
  br label %18

18:                                               ; preds = %17, %1
  ret void
}

; Function Attrs: mustprogress nounwind uwtable
define linkonce_odr hidden void @_ZN5zxing3RefINS_20PerspectiveTransformEED2Ev(ptr noundef nonnull align 8 dereferenceable(8) %0) unnamed_addr #1 comdat align 2 {
  %2 = alloca ptr, align 8
  store ptr %0, ptr %2, align 8, !tbaa !112
  %3 = load ptr, ptr %2, align 8
  %4 = getelementptr inbounds nuw %"class.zxing::Ref.29", ptr %3, i32 0, i32 0
  %5 = load ptr, ptr %4, align 8, !tbaa !116
  %6 = icmp ne ptr %5, null
  br i1 %6, label %7, label %10

7:                                                ; preds = %1
  %8 = getelementptr inbounds nuw %"class.zxing::Ref.29", ptr %3, i32 0, i32 0
  %9 = load ptr, ptr %8, align 8, !tbaa !116
  call void @_ZN5zxing7Counted7releaseEv(ptr noundef nonnull align 8 dereferenceable(12) %9)
  br label %10

10:                                               ; preds = %7, %1
  ret void
}

; Function Attrs: inlinehint mustprogress nounwind uwtable
define linkonce_odr noundef float @_ZSt4fabsf(float noundef %0) #6 comdat {
  %2 = alloca float, align 4
  store float %0, ptr %2, align 4, !tbaa !80
  %3 = load float, ptr %2, align 4, !tbaa !80
  %4 = call float @llvm.fabs.f32(float %3)
  ret float %4
}

; Function Attrs: mustprogress nounwind uwtable
define linkonce_odr hidden noundef ptr @_ZNK5zxing3RefINS_11ResultPointEEptEv(ptr noundef nonnull align 8 dereferenceable(8) %0) #1 comdat align 2 {
  %2 = alloca ptr, align 8
  store ptr %0, ptr %2, align 8, !tbaa !102
  %3 = load ptr, ptr %2, align 8
  %4 = getelementptr inbounds nuw %"class.zxing::Ref.30", ptr %3, i32 0, i32 0
  %5 = load ptr, ptr %4, align 8, !tbaa !106
  ret ptr %5
}

; Function Attrs: mustprogress nounwind uwtable
define linkonce_odr hidden noundef ptr @_ZNK5zxing3RefINS_11ResultPointEEcvPS1_Ev(ptr noundef nonnull align 8 dereferenceable(8) %0) #1 comdat align 2 {
  %2 = alloca ptr, align 8
  store ptr %0, ptr %2, align 8, !tbaa !102
  %3 = load ptr, ptr %2, align 8
  %4 = getelementptr inbounds nuw %"class.zxing::Ref.30", ptr %3, i32 0, i32 0
  %5 = load ptr, ptr %4, align 8, !tbaa !106
  ret ptr %5
}

; Function Attrs: mustprogress uwtable
define hidden void @_ZN5zxing6qrcode8Detector15createTransformENS_3RefINS_11ResultPointEEES4_S4_S4_i(ptr dead_on_unwind noalias writable sret(%"class.zxing::Ref.29") align 8 %0, ptr noundef nonnull align 8 dereferenceable(60) %1, ptr noundef %2, ptr noundef %3, ptr noundef %4, ptr noundef %5, i32 noundef %6) unnamed_addr #0 align 2 {
  %8 = alloca ptr, align 8
  %9 = alloca ptr, align 8
  %10 = alloca ptr, align 8
  %11 = alloca ptr, align 8
  %12 = alloca ptr, align 8
  %13 = alloca ptr, align 8
  %14 = alloca i32, align 4
  %15 = alloca float, align 4
  %16 = alloca float, align 4
  %17 = alloca float, align 4
  %18 = alloca float, align 4
  %19 = alloca float, align 4
  %20 = alloca float, align 4
  %21 = alloca float, align 4
  %22 = alloca i1, align 1
  store ptr %0, ptr %8, align 8
  store ptr %1, ptr %9, align 8, !tbaa !3
  store ptr %2, ptr %10, align 8, !tbaa !102
  store ptr %3, ptr %11, align 8, !tbaa !102
  store ptr %4, ptr %12, align 8, !tbaa !102
  store ptr %5, ptr %13, align 8, !tbaa !102
  store i32 %6, ptr %14, align 4, !tbaa !75
  call void @llvm.lifetime.start.p0(i64 4, ptr %15) #16
  %23 = load i32, ptr %14, align 4, !tbaa !75
  %24 = sitofp i32 %23 to float
  %25 = fsub float %24, 3.500000e+00
  store float %25, ptr %15, align 4, !tbaa !80
  call void @llvm.lifetime.start.p0(i64 4, ptr %16) #16
  call void @llvm.lifetime.start.p0(i64 4, ptr %17) #16
  call void @llvm.lifetime.start.p0(i64 4, ptr %18) #16
  call void @llvm.lifetime.start.p0(i64 4, ptr %19) #16
  %26 = call noundef ptr @_ZNK5zxing3RefINS_11ResultPointEEcvPS1_Ev(ptr noundef nonnull align 8 dereferenceable(8) %5)
  %27 = icmp ne ptr %26, null
  br i1 %27, label %28, label %49

28:                                               ; preds = %7
  %29 = call noundef ptr @_ZNK5zxing3RefINS_11ResultPointEEptEv(ptr noundef nonnull align 8 dereferenceable(8) %5)
  %30 = load ptr, ptr %29, align 8, !tbaa !12
  %31 = getelementptr inbounds ptr, ptr %30, i64 2
  %32 = load ptr, ptr %31, align 8
  %33 = call noundef float %32(ptr noundef nonnull align 8 dereferenceable(20) %29)
  %34 = fcmp une float %33, 0.000000e+00
  br i1 %34, label %35, label %49

35:                                               ; preds = %28
  %36 = call noundef ptr @_ZNK5zxing3RefINS_11ResultPointEEptEv(ptr noundef nonnull align 8 dereferenceable(8) %5)
  %37 = load ptr, ptr %36, align 8, !tbaa !12
  %38 = getelementptr inbounds ptr, ptr %37, i64 2
  %39 = load ptr, ptr %38, align 8
  %40 = call noundef float %39(ptr noundef nonnull align 8 dereferenceable(20) %36)
  store float %40, ptr %16, align 4, !tbaa !80
  %41 = call noundef ptr @_ZNK5zxing3RefINS_11ResultPointEEptEv(ptr noundef nonnull align 8 dereferenceable(8) %5)
  %42 = load ptr, ptr %41, align 8, !tbaa !12
  %43 = getelementptr inbounds ptr, ptr %42, i64 3
  %44 = load ptr, ptr %43, align 8
  %45 = call noundef float %44(ptr noundef nonnull align 8 dereferenceable(20) %41)
  store float %45, ptr %17, align 4, !tbaa !80
  %46 = load float, ptr %15, align 4, !tbaa !80
  %47 = fsub float %46, 3.000000e+00
  store float %47, ptr %18, align 4, !tbaa !80
  %48 = load float, ptr %18, align 4, !tbaa !80
  store float %48, ptr %19, align 4, !tbaa !80
  br label %144

49:                                               ; preds = %28, %7
  %50 = call noundef ptr @_ZNK5zxing3RefINS_11ResultPointEEptEv(ptr noundef nonnull align 8 dereferenceable(8) %3)
  %51 = load ptr, ptr %50, align 8, !tbaa !12
  %52 = getelementptr inbounds ptr, ptr %51, i64 2
  %53 = load ptr, ptr %52, align 8
  %54 = call noundef float %53(ptr noundef nonnull align 8 dereferenceable(20) %50)
  %55 = call noundef ptr @_ZNK5zxing3RefINS_11ResultPointEEptEv(ptr noundef nonnull align 8 dereferenceable(8) %2)
  %56 = load ptr, ptr %55, align 8, !tbaa !12
  %57 = getelementptr inbounds ptr, ptr %56, i64 2
  %58 = load ptr, ptr %57, align 8
  %59 = call noundef float %58(ptr noundef nonnull align 8 dereferenceable(20) %55)
  %60 = fsub float %54, %59
  %61 = call noundef ptr @_ZNK5zxing3RefINS_11ResultPointEEptEv(ptr noundef nonnull align 8 dereferenceable(8) %4)
  %62 = load ptr, ptr %61, align 8, !tbaa !12
  %63 = getelementptr inbounds ptr, ptr %62, i64 2
  %64 = load ptr, ptr %63, align 8
  %65 = call noundef float %64(ptr noundef nonnull align 8 dereferenceable(20) %61)
  %66 = fadd float %60, %65
  store float %66, ptr %16, align 4, !tbaa !80
  %67 = call noundef ptr @_ZNK5zxing3RefINS_11ResultPointEEptEv(ptr noundef nonnull align 8 dereferenceable(8) %3)
  %68 = load ptr, ptr %67, align 8, !tbaa !12
  %69 = getelementptr inbounds ptr, ptr %68, i64 3
  %70 = load ptr, ptr %69, align 8
  %71 = call noundef float %70(ptr noundef nonnull align 8 dereferenceable(20) %67)
  %72 = call noundef ptr @_ZNK5zxing3RefINS_11ResultPointEEptEv(ptr noundef nonnull align 8 dereferenceable(8) %2)
  %73 = load ptr, ptr %72, align 8, !tbaa !12
  %74 = getelementptr inbounds ptr, ptr %73, i64 3
  %75 = load ptr, ptr %74, align 8
  %76 = call noundef float %75(ptr noundef nonnull align 8 dereferenceable(20) %72)
  %77 = fsub float %71, %76
  %78 = call noundef ptr @_ZNK5zxing3RefINS_11ResultPointEEptEv(ptr noundef nonnull align 8 dereferenceable(8) %4)
  %79 = load ptr, ptr %78, align 8, !tbaa !12
  %80 = getelementptr inbounds ptr, ptr %79, i64 3
  %81 = load ptr, ptr %80, align 8
  %82 = call noundef float %81(ptr noundef nonnull align 8 dereferenceable(20) %78)
  %83 = fadd float %77, %82
  store float %83, ptr %17, align 4, !tbaa !80
  call void @llvm.lifetime.start.p0(i64 4, ptr %20) #16
  %84 = call noundef ptr @_ZNK5zxing3RefINS_11ResultPointEEptEv(ptr noundef nonnull align 8 dereferenceable(8) %2)
  %85 = load ptr, ptr %84, align 8, !tbaa !12
  %86 = getelementptr inbounds ptr, ptr %85, i64 2
  %87 = load ptr, ptr %86, align 8
  %88 = call noundef float %87(ptr noundef nonnull align 8 dereferenceable(20) %84)
  %89 = call noundef ptr @_ZNK5zxing3RefINS_11ResultPointEEptEv(ptr noundef nonnull align 8 dereferenceable(8) %4)
  %90 = load ptr, ptr %89, align 8, !tbaa !12
  %91 = getelementptr inbounds ptr, ptr %90, i64 2
  %92 = load ptr, ptr %91, align 8
  %93 = call noundef float %92(ptr noundef nonnull align 8 dereferenceable(20) %89)
  %94 = fsub float %88, %93
  store float %94, ptr %20, align 4, !tbaa !80
  call void @llvm.lifetime.start.p0(i64 4, ptr %21) #16
  %95 = call noundef ptr @_ZNK5zxing3RefINS_11ResultPointEEptEv(ptr noundef nonnull align 8 dereferenceable(8) %2)
  %96 = load ptr, ptr %95, align 8, !tbaa !12
  %97 = getelementptr inbounds ptr, ptr %96, i64 3
  %98 = load ptr, ptr %97, align 8
  %99 = call noundef float %98(ptr noundef nonnull align 8 dereferenceable(20) %95)
  %100 = call noundef ptr @_ZNK5zxing3RefINS_11ResultPointEEptEv(ptr noundef nonnull align 8 dereferenceable(8) %4)
  %101 = load ptr, ptr %100, align 8, !tbaa !12
  %102 = getelementptr inbounds ptr, ptr %101, i64 3
  %103 = load ptr, ptr %102, align 8
  %104 = call noundef float %103(ptr noundef nonnull align 8 dereferenceable(20) %100)
  %105 = fsub float %99, %104
  store float %105, ptr %21, align 4, !tbaa !80
  %106 = load float, ptr %20, align 4, !tbaa !80
  %107 = call noundef float @_ZSt4fabsf(float noundef %106)
  %108 = load float, ptr %21, align 4, !tbaa !80
  %109 = call noundef float @_ZSt4fabsf(float noundef %108)
  %110 = fcmp olt float %107, %109
  br i1 %110, label %111, label %123

111:                                              ; preds = %49
  %112 = call noundef ptr @_ZNK5zxing3RefINS_11ResultPointEEptEv(ptr noundef nonnull align 8 dereferenceable(8) %2)
  %113 = load ptr, ptr %112, align 8, !tbaa !12
  %114 = getelementptr inbounds ptr, ptr %113, i64 3
  %115 = load ptr, ptr %114, align 8
  %116 = call noundef float %115(ptr noundef nonnull align 8 dereferenceable(20) %112)
  %117 = call noundef ptr @_ZNK5zxing3RefINS_11ResultPointEEptEv(ptr noundef nonnull align 8 dereferenceable(8) %3)
  %118 = load ptr, ptr %117, align 8, !tbaa !12
  %119 = getelementptr inbounds ptr, ptr %118, i64 3
  %120 = load ptr, ptr %119, align 8
  %121 = call noundef float %120(ptr noundef nonnull align 8 dereferenceable(20) %117)
  %122 = fsub float %116, %121
  store float %122, ptr %21, align 4, !tbaa !80
  br label %135

123:                                              ; preds = %49
  %124 = call noundef ptr @_ZNK5zxing3RefINS_11ResultPointEEptEv(ptr noundef nonnull align 8 dereferenceable(8) %2)
  %125 = load ptr, ptr %124, align 8, !tbaa !12
  %126 = getelementptr inbounds ptr, ptr %125, i64 2
  %127 = load ptr, ptr %126, align 8
  %128 = call noundef float %127(ptr noundef nonnull align 8 dereferenceable(20) %124)
  %129 = call noundef ptr @_ZNK5zxing3RefINS_11ResultPointEEptEv(ptr noundef nonnull align 8 dereferenceable(8) %3)
  %130 = load ptr, ptr %129, align 8, !tbaa !12
  %131 = getelementptr inbounds ptr, ptr %130, i64 2
  %132 = load ptr, ptr %131, align 8
  %133 = call noundef float %132(ptr noundef nonnull align 8 dereferenceable(20) %129)
  %134 = fsub float %128, %133
  store float %134, ptr %20, align 4, !tbaa !80
  br label %135

135:                                              ; preds = %123, %111
  %136 = load float, ptr %20, align 4, !tbaa !80
  %137 = load float, ptr %16, align 4, !tbaa !80
  %138 = call float @llvm.fmuladd.f32(float 2.000000e+00, float %136, float %137)
  store float %138, ptr %16, align 4, !tbaa !80
  %139 = load float, ptr %21, align 4, !tbaa !80
  %140 = load float, ptr %17, align 4, !tbaa !80
  %141 = call float @llvm.fmuladd.f32(float 2.000000e+00, float %139, float %140)
  store float %141, ptr %17, align 4, !tbaa !80
  %142 = load float, ptr %15, align 4, !tbaa !80
  store float %142, ptr %18, align 4, !tbaa !80
  %143 = load float, ptr %15, align 4, !tbaa !80
  store float %143, ptr %19, align 4, !tbaa !80
  call void @llvm.lifetime.end.p0(i64 4, ptr %21) #16
  call void @llvm.lifetime.end.p0(i64 4, ptr %20) #16
  br label %144

144:                                              ; preds = %135, %35
  store i1 false, ptr %22, align 1
  %145 = load float, ptr %15, align 4, !tbaa !80
  %146 = load float, ptr %18, align 4, !tbaa !80
  %147 = load float, ptr %19, align 4, !tbaa !80
  %148 = load float, ptr %15, align 4, !tbaa !80
  %149 = call noundef ptr @_ZNK5zxing3RefINS_11ResultPointEEptEv(ptr noundef nonnull align 8 dereferenceable(8) %2)
  %150 = load ptr, ptr %149, align 8, !tbaa !12
  %151 = getelementptr inbounds ptr, ptr %150, i64 2
  %152 = load ptr, ptr %151, align 8
  %153 = call noundef float %152(ptr noundef nonnull align 8 dereferenceable(20) %149)
  %154 = call noundef ptr @_ZNK5zxing3RefINS_11ResultPointEEptEv(ptr noundef nonnull align 8 dereferenceable(8) %2)
  %155 = load ptr, ptr %154, align 8, !tbaa !12
  %156 = getelementptr inbounds ptr, ptr %155, i64 3
  %157 = load ptr, ptr %156, align 8
  %158 = call noundef float %157(ptr noundef nonnull align 8 dereferenceable(20) %154)
  %159 = call noundef ptr @_ZNK5zxing3RefINS_11ResultPointEEptEv(ptr noundef nonnull align 8 dereferenceable(8) %3)
  %160 = load ptr, ptr %159, align 8, !tbaa !12
  %161 = getelementptr inbounds ptr, ptr %160, i64 2
  %162 = load ptr, ptr %161, align 8
  %163 = call noundef float %162(ptr noundef nonnull align 8 dereferenceable(20) %159)
  %164 = call noundef ptr @_ZNK5zxing3RefINS_11ResultPointEEptEv(ptr noundef nonnull align 8 dereferenceable(8) %3)
  %165 = load ptr, ptr %164, align 8, !tbaa !12
  %166 = getelementptr inbounds ptr, ptr %165, i64 3
  %167 = load ptr, ptr %166, align 8
  %168 = call noundef float %167(ptr noundef nonnull align 8 dereferenceable(20) %164)
  %169 = load float, ptr %16, align 4, !tbaa !80
  %170 = load float, ptr %17, align 4, !tbaa !80
  %171 = call noundef ptr @_ZNK5zxing3RefINS_11ResultPointEEptEv(ptr noundef nonnull align 8 dereferenceable(8) %4)
  %172 = load ptr, ptr %171, align 8, !tbaa !12
  %173 = getelementptr inbounds ptr, ptr %172, i64 2
  %174 = load ptr, ptr %173, align 8
  %175 = call noundef float %174(ptr noundef nonnull align 8 dereferenceable(20) %171)
  %176 = call noundef ptr @_ZNK5zxing3RefINS_11ResultPointEEptEv(ptr noundef nonnull align 8 dereferenceable(8) %4)
  %177 = load ptr, ptr %176, align 8, !tbaa !12
  %178 = getelementptr inbounds ptr, ptr %177, i64 3
  %179 = load ptr, ptr %178, align 8
  %180 = call noundef float %179(ptr noundef nonnull align 8 dereferenceable(20) %176)
  call void @_ZN5zxing20PerspectiveTransform28quadrilateralToQuadrilateralEffffffffffffffff(ptr dead_on_unwind writable sret(%"class.zxing::Ref.29") align 8 %0, float noundef 3.500000e+00, float noundef 3.500000e+00, float noundef %145, float noundef 3.500000e+00, float noundef %146, float noundef %147, float noundef 3.500000e+00, float noundef %148, float noundef %153, float noundef %158, float noundef %163, float noundef %168, float noundef %169, float noundef %170, float noundef %175, float noundef %180)
  store i1 true, ptr %22, align 1
  %181 = load i1, ptr %22, align 1
  br i1 %181, label %183, label %182

182:                                              ; preds = %144
  call void @_ZN5zxing3RefINS_20PerspectiveTransformEED2Ev(ptr noundef nonnull align 8 dereferenceable(8) %0) #16
  br label %183

183:                                              ; preds = %182, %144
  call void @llvm.lifetime.end.p0(i64 4, ptr %19) #16
  call void @llvm.lifetime.end.p0(i64 4, ptr %18) #16
  call void @llvm.lifetime.end.p0(i64 4, ptr %17) #16
  call void @llvm.lifetime.end.p0(i64 4, ptr %16) #16
  call void @llvm.lifetime.end.p0(i64 4, ptr %15) #16
  ret void
}