; Function Attrs: mustprogress uwtable
define hidden void @_ZN5zxing6qrcode8Detector15createTransformENS_3RefINS_11ResultPointEEES4_S4_S4_i(ptr dead_on_unwind noalias writable sret(%"class.zxing::Ref.29") align 8 %0, ptr nonnull readnone align 8 captures(none) %1, ptr noundef readonly captures(none) %2, ptr noundef readonly captures(none) %3, ptr noundef readonly captures(none) %4, ptr noundef readonly captures(none) %5, i32 noundef %6) unnamed_addr #1 align 2 {
  %8 = sitofp i32 %6 to float
  %9 = fadd float %8, -3.500000e+00
  %10 = load ptr, ptr %5, align 8, !tbaa !82
  %.not = icmp eq ptr %10, null
  br i1 %.not, label %29, label %11

11:                                               ; preds = %7
  %12 = load ptr, ptr %10, align 8, !tbaa !8
  %13 = getelementptr inbounds nuw i8, ptr %12, i64 16
  %14 = load ptr, ptr %13, align 8
  %15 = tail call noundef float %14(ptr noundef nonnull align 8 dereferenceable(20) %10)
  %16 = fcmp une float %15, 0.000000e+00
  br i1 %16, label %17, label %29

17:                                               ; preds = %11
  %18 = load ptr, ptr %5, align 8, !tbaa !82
  %19 = load ptr, ptr %18, align 8, !tbaa !8
  %20 = getelementptr inbounds nuw i8, ptr %19, i64 16
  %21 = load ptr, ptr %20, align 8
  %22 = tail call noundef float %21(ptr noundef nonnull align 8 dereferenceable(20) %18)
  %23 = load ptr, ptr %5, align 8, !tbaa !82
  %24 = load ptr, ptr %23, align 8, !tbaa !8
  %25 = getelementptr inbounds nuw i8, ptr %24, i64 24
  %26 = load ptr, ptr %25, align 8
  %27 = tail call noundef float %26(ptr noundef nonnull align 8 dereferenceable(20) %23)
  %28 = fadd float %9, -3.000000e+00
  br label %114

29:                                               ; preds = %11, %7
  %30 = load ptr, ptr %3, align 8, !tbaa !82
  %31 = load ptr, ptr %30, align 8, !tbaa !8
  %32 = getelementptr inbounds nuw i8, ptr %31, i64 16
  %33 = load ptr, ptr %32, align 8
  %34 = tail call noundef float %33(ptr noundef nonnull align 8 dereferenceable(20) %30)
  %35 = load ptr, ptr %2, align 8, !tbaa !82
  %36 = load ptr, ptr %35, align 8, !tbaa !8
  %37 = getelementptr inbounds nuw i8, ptr %36, i64 16
  %38 = load ptr, ptr %37, align 8
  %39 = tail call noundef float %38(ptr noundef nonnull align 8 dereferenceable(20) %35)
  %40 = fsub float %34, %39
  %41 = load ptr, ptr %4, align 8, !tbaa !82
  %42 = load ptr, ptr %41, align 8, !tbaa !8
  %43 = getelementptr inbounds nuw i8, ptr %42, i64 16
  %44 = load ptr, ptr %43, align 8
  %45 = tail call noundef float %44(ptr noundef nonnull align 8 dereferenceable(20) %41)
  %46 = fadd float %40, %45
  %47 = load ptr, ptr %3, align 8, !tbaa !82
  %48 = load ptr, ptr %47, align 8, !tbaa !8
  %49 = getelementptr inbounds nuw i8, ptr %48, i64 24
  %50 = load ptr, ptr %49, align 8
  %51 = tail call noundef float %50(ptr noundef nonnull align 8 dereferenceable(20) %47)
  %52 = load ptr, ptr %2, align 8, !tbaa !82
  %53 = load ptr, ptr %52, align 8, !tbaa !8
  %54 = getelementptr inbounds nuw i8, ptr %53, i64 24
  %55 = load ptr, ptr %54, align 8
  %56 = tail call noundef float %55(ptr noundef nonnull align 8 dereferenceable(20) %52)
  %57 = fsub float %51, %56
  %58 = load ptr, ptr %4, align 8, !tbaa !82
  %59 = load ptr, ptr %58, align 8, !tbaa !8
  %60 = getelementptr inbounds nuw i8, ptr %59, i64 24
  %61 = load ptr, ptr %60, align 8
  %62 = tail call noundef float %61(ptr noundef nonnull align 8 dereferenceable(20) %58)
  %63 = fadd float %57, %62
  %64 = load ptr, ptr %2, align 8, !tbaa !82
  %65 = load ptr, ptr %64, align 8, !tbaa !8
  %66 = getelementptr inbounds nuw i8, ptr %65, i64 16
  %67 = load ptr, ptr %66, align 8
  %68 = tail call noundef float %67(ptr noundef nonnull align 8 dereferenceable(20) %64)
  %69 = load ptr, ptr %4, align 8, !tbaa !82
  %70 = load ptr, ptr %69, align 8, !tbaa !8
  %71 = getelementptr inbounds nuw i8, ptr %70, i64 16
  %72 = load ptr, ptr %71, align 8
  %73 = tail call noundef float %72(ptr noundef nonnull align 8 dereferenceable(20) %69)
  %74 = fsub float %68, %73
  %75 = load ptr, ptr %2, align 8, !tbaa !82
  %76 = load ptr, ptr %75, align 8, !tbaa !8
  %77 = getelementptr inbounds nuw i8, ptr %76, i64 24
  %78 = load ptr, ptr %77, align 8
  %79 = tail call noundef float %78(ptr noundef nonnull align 8 dereferenceable(20) %75)
  %80 = load ptr, ptr %4, align 8, !tbaa !82
  %81 = load ptr, ptr %80, align 8, !tbaa !8
  %82 = getelementptr inbounds nuw i8, ptr %81, i64 24
  %83 = load ptr, ptr %82, align 8
  %84 = tail call noundef float %83(ptr noundef nonnull align 8 dereferenceable(20) %80)
  %85 = fsub float %79, %84
  %86 = tail call noundef float @llvm.fabs.f32(float %74)
  %87 = tail call noundef float @llvm.fabs.f32(float %85)
  %88 = fcmp olt float %86, %87
  %89 = load ptr, ptr %2, align 8, !tbaa !82
  %90 = load ptr, ptr %89, align 8, !tbaa !8
  br i1 %88, label %91, label %101

91:                                               ; preds = %29
  %92 = getelementptr inbounds nuw i8, ptr %90, i64 24
  %93 = load ptr, ptr %92, align 8
  %94 = tail call noundef float %93(ptr noundef nonnull align 8 dereferenceable(20) %89)
  %95 = load ptr, ptr %3, align 8, !tbaa !82
  %96 = load ptr, ptr %95, align 8, !tbaa !8
  %97 = getelementptr inbounds nuw i8, ptr %96, i64 24
  %98 = load ptr, ptr %97, align 8
  %99 = tail call noundef float %98(ptr noundef nonnull align 8 dereferenceable(20) %95)
  %100 = fsub float %94, %99
  br label %111

101:                                              ; preds = %29
  %102 = getelementptr inbounds nuw i8, ptr %90, i64 16
  %103 = load ptr, ptr %102, align 8
  %104 = tail call noundef float %103(ptr noundef nonnull align 8 dereferenceable(20) %89)
  %105 = load ptr, ptr %3, align 8, !tbaa !82
  %106 = load ptr, ptr %105, align 8, !tbaa !8
  %107 = getelementptr inbounds nuw i8, ptr %106, i64 16
  %108 = load ptr, ptr %107, align 8
  %109 = tail call noundef float %108(ptr noundef nonnull align 8 dereferenceable(20) %105)
  %110 = fsub float %104, %109
  br label %111

111:                                              ; preds = %101, %91
  %.018 = phi float [ %74, %91 ], [ %110, %101 ]
  %.017 = phi float [ %100, %91 ], [ %85, %101 ]
  %112 = tail call float @llvm.fmuladd.f32(float %.018, float 2.000000e+00, float %46)
  %113 = tail call float @llvm.fmuladd.f32(float %.017, float 2.000000e+00, float %63)
  br label %114

114:                                              ; preds = %111, %17
  %.021 = phi float [ %27, %17 ], [ %113, %111 ]
  %.019 = phi float [ %28, %17 ], [ %9, %111 ]
  %.0 = phi float [ %22, %17 ], [ %112, %111 ]
  %115 = load ptr, ptr %2, align 8, !tbaa !82
  %116 = load ptr, ptr %115, align 8, !tbaa !8
  %117 = getelementptr inbounds nuw i8, ptr %116, i64 16
  %118 = load ptr, ptr %117, align 8
  %119 = tail call noundef float %118(ptr noundef nonnull align 8 dereferenceable(20) %115)
  %120 = load ptr, ptr %2, align 8, !tbaa !82
  %121 = load ptr, ptr %120, align 8, !tbaa !8
  %122 = getelementptr inbounds nuw i8, ptr %121, i64 24
  %123 = load ptr, ptr %122, align 8
  %124 = tail call noundef float %123(ptr noundef nonnull align 8 dereferenceable(20) %120)
  %125 = load ptr, ptr %3, align 8, !tbaa !82
  %126 = load ptr, ptr %125, align 8, !tbaa !8
  %127 = getelementptr inbounds nuw i8, ptr %126, i64 16
  %128 = load ptr, ptr %127, align 8
  %129 = tail call noundef float %128(ptr noundef nonnull align 8 dereferenceable(20) %125)
  %130 = load ptr, ptr %3, align 8, !tbaa !82
  %131 = load ptr, ptr %130, align 8, !tbaa !8
  %132 = getelementptr inbounds nuw i8, ptr %131, i64 24
  %133 = load ptr, ptr %132, align 8
  %134 = tail call noundef float %133(ptr noundef nonnull align 8 dereferenceable(20) %130)
  %135 = load ptr, ptr %4, align 8, !tbaa !82
  %136 = load ptr, ptr %135, align 8, !tbaa !8
  %137 = getelementptr inbounds nuw i8, ptr %136, i64 16
  %138 = load ptr, ptr %137, align 8
  %139 = tail call noundef float %138(ptr noundef nonnull align 8 dereferenceable(20) %135)
  %140 = load ptr, ptr %4, align 8, !tbaa !82
  %141 = load ptr, ptr %140, align 8, !tbaa !8
  %142 = getelementptr inbounds nuw i8, ptr %141, i64 24
  %143 = load ptr, ptr %142, align 8
  %144 = tail call noundef float %143(ptr noundef nonnull align 8 dereferenceable(20) %140)
  tail call void @_ZN5zxing20PerspectiveTransform28quadrilateralToQuadrilateralEffffffffffffffff(ptr dead_on_unwind writable sret(%"class.zxing::Ref.29") align 8 %0, float noundef 3.500000e+00, float noundef 3.500000e+00, float noundef %9, float noundef 3.500000e+00, float noundef %.019, float noundef %.019, float noundef 3.500000e+00, float noundef %9, float noundef %119, float noundef %124, float noundef %129, float noundef %134, float noundef %.0, float noundef %.021, float noundef %139, float noundef %144)
  ret void
}